
program.elf:     file format elf32-littleriscv


Disassembly of section .text:

00000000 <read_mcycle>:
   0:	fe010113          	addi	sp,sp,-32
   4:	00112e23          	sw	ra,28(sp)
   8:	00812c23          	sw	s0,24(sp)
   c:	02010413          	addi	s0,sp,32
  10:	b00027f3          	csrr	a5,mcycle
  14:	fef42623          	sw	a5,-20(s0)
  18:	fec42783          	lw	a5,-20(s0)
  1c:	00078513          	mv	a0,a5
  20:	01c12083          	lw	ra,28(sp)
  24:	01812403          	lw	s0,24(sp)
  28:	02010113          	addi	sp,sp,32
  2c:	00008067          	ret

00000030 <write_mtvec>:
  30:	fe010113          	addi	sp,sp,-32
  34:	00112e23          	sw	ra,28(sp)
  38:	00812c23          	sw	s0,24(sp)
  3c:	02010413          	addi	s0,sp,32
  40:	fea42623          	sw	a0,-20(s0)
  44:	fec42783          	lw	a5,-20(s0)
  48:	30579073          	csrw	mtvec,a5
  4c:	00000013          	nop
  50:	01c12083          	lw	ra,28(sp)
  54:	01812403          	lw	s0,24(sp)
  58:	02010113          	addi	sp,sp,32
  5c:	00008067          	ret

00000060 <write_to_peripheral>:
  60:	fd010113          	addi	sp,sp,-48
  64:	02112623          	sw	ra,44(sp)
  68:	02812423          	sw	s0,40(sp)
  6c:	03010413          	addi	s0,sp,48
  70:	fca42e23          	sw	a0,-36(s0)
  74:	fcb42c23          	sw	a1,-40(s0)
  78:	fdc42783          	lw	a5,-36(s0)
  7c:	fef42623          	sw	a5,-20(s0)
  80:	fec42783          	lw	a5,-20(s0)
  84:	fd842703          	lw	a4,-40(s0)
  88:	00e7a023          	sw	a4,0(a5)
  8c:	00000013          	nop
  90:	02c12083          	lw	ra,44(sp)
  94:	02812403          	lw	s0,40(sp)
  98:	03010113          	addi	sp,sp,48
  9c:	00008067          	ret

000000a0 <write_to_peripheral.0>:
  a0:	fd010113          	addi	sp,sp,-48
  a4:	02112623          	sw	ra,44(sp)
  a8:	02812423          	sw	s0,40(sp)
  ac:	03010413          	addi	s0,sp,48
  b0:	fca42e23          	sw	a0,-36(s0)
  b4:	fcb42c23          	sw	a1,-40(s0)
  b8:	fc742a23          	sw	t2,-44(s0)
  bc:	fdc42783          	lw	a5,-36(s0)
  c0:	fef42623          	sw	a5,-20(s0)
  c4:	fec42783          	lw	a5,-20(s0)
  c8:	fd842703          	lw	a4,-40(s0)
  cc:	00e7a023          	sw	a4,0(a5)
  d0:	00000013          	nop
  d4:	02c12083          	lw	ra,44(sp)
  d8:	02812403          	lw	s0,40(sp)
  dc:	03010113          	addi	sp,sp,48
  e0:	00008067          	ret

000000e4 <main>:
  e4:	fc010113          	addi	sp,sp,-64
  e8:	02112e23          	sw	ra,60(sp)
  ec:	02812c23          	sw	s0,56(sp)
  f0:	04010413          	addi	s0,sp,64
  f4:	fc842623          	sw	s0,-52(s0)
  f8:	fcc42783          	lw	a5,-52(s0)
  fc:	fef42023          	sw	a5,-32(s0)
 100:	00100537          	lui	a0,0x100
 104:	f2dff0ef          	jal	30 <write_mtvec>
 108:	ef9ff0ef          	jal	0 <read_mcycle>
 10c:	fea42623          	sw	a0,-20(s0)
 110:	fc042e23          	sw	zero,-36(s0)
 114:	0100006f          	j	124 <main+0x40>
 118:	fdc42783          	lw	a5,-36(s0)
 11c:	00178793          	addi	a5,a5,1
 120:	fcf42e23          	sw	a5,-36(s0)
 124:	fdc42703          	lw	a4,-36(s0)
 128:	06300793          	li	a5,99
 12c:	fee7d6e3          	bge	a5,a4,118 <main+0x34>
 130:	ed1ff0ef          	jal	0 <read_mcycle>
 134:	fea42423          	sw	a0,-24(s0)
 138:	fe842703          	lw	a4,-24(s0)
 13c:	fec42783          	lw	a5,-20(s0)
 140:	40f707b3          	sub	a5,a4,a5
 144:	fef42223          	sw	a5,-28(s0)
 148:	fe040793          	addi	a5,s0,-32
 14c:	00078393          	mv	t2,a5
 150:	deadc7b7          	lui	a5,0xdeadc
 154:	eef78593          	addi	a1,a5,-273 # deadbeef <_stack_start+0xdeadaeef>
 158:	60000513          	li	a0,1536
 15c:	f45ff0ef          	jal	a0 <write_to_peripheral.0>
 160:	00000793          	li	a5,0
 164:	00078513          	mv	a0,a5
 168:	03c12083          	lw	ra,60(sp)
 16c:	03812403          	lw	s0,56(sp)
 170:	04010113          	addi	sp,sp,64
 174:	00008067          	ret

00000178 <_start>:
 178:	00001117          	auipc	sp,0x1
 17c:	e8810113          	addi	sp,sp,-376 # 1000 <_stack_start>
 180:	f65ff0ef          	jal	e4 <main>
 184:	ff5ff06f          	j	178 <_start>

Disassembly of section .comment:

00000000 <.comment>:
   0:	3a434347          	.insn	4, 0x3a434347
   4:	2820                	.insn	2, 0x2820
   6:	36343067          	.insn	4, 0x36343067
   a:	3639                	.insn	2, 0x3639
   c:	6664                	.insn	2, 0x6664
   e:	3930                	.insn	2, 0x3930
  10:	3336                	.insn	2, 0x3336
  12:	2029                	.insn	2, 0x2029
  14:	3431                	.insn	2, 0x3431
  16:	322e                	.insn	2, 0x322e
  18:	302e                	.insn	2, 0x302e
	...

Disassembly of section .riscv.attributes:

00000000 <.riscv.attributes>:
   0:	2841                	.insn	2, 0x2841
   2:	0000                	.insn	2, 0x
   4:	7200                	.insn	2, 0x7200
   6:	7369                	.insn	2, 0x7369
   8:	01007663          	bgeu	zero,a6,14 <read_mcycle+0x14>
   c:	001e                	.insn	2, 0x001e
   e:	0000                	.insn	2, 0x
  10:	1004                	.insn	2, 0x1004
  12:	7205                	.insn	2, 0x7205
  14:	3376                	.insn	2, 0x3376
  16:	6932                	.insn	2, 0x6932
  18:	7032                	.insn	2, 0x7032
  1a:	5f31                	.insn	2, 0x5f31
  1c:	697a                	.insn	2, 0x697a
  1e:	32727363          	bgeu	tp,t2,344 <_etext+0x1bc>
  22:	3070                	.insn	2, 0x3070
  24:	0800                	.insn	2, 0x0800
  26:	0a01                	.insn	2, 0x0a01
  28:	Address 0x28 is out of bounds.