
program.bin:     file format binary


Disassembly of section .data:

00000000 <.data>:
   0:	fd010113          	addi	sp,sp,-48
   4:	02112623          	sw	ra,44(sp)
   8:	02812423          	sw	s0,40(sp)
   c:	03010413          	addi	s0,sp,48
  10:	fca42e23          	sw	a0,-36(s0)
  14:	fcb42c23          	sw	a1,-40(s0)
  18:	fdc42783          	lw	a5,-36(s0)
  1c:	fef42623          	sw	a5,-20(s0)
  20:	fec42783          	lw	a5,-20(s0)
  24:	fd842703          	lw	a4,-40(s0)
  28:	00e7a023          	sw	a4,0(a5)
  2c:	00000013          	nop
  30:	02c12083          	lw	ra,44(sp)
  34:	02812403          	lw	s0,40(sp)
  38:	03010113          	addi	sp,sp,48
  3c:	00008067          	ret
  40:	fe010113          	addi	sp,sp,-32
  44:	00112e23          	sw	ra,28(sp)
  48:	00812c23          	sw	s0,24(sp)
  4c:	02010413          	addi	s0,sp,32
  50:	fea42623          	sw	a0,-20(s0)
  54:	fec42783          	lw	a5,-20(s0)
  58:	00078593          	mv	a1,a5
  5c:	60400513          	li	a0,1540
  60:	fa1ff0ef          	jal	0x0
  64:	0badf7b7          	lui	a5,0xbadf
  68:	00d78593          	addi	a1,a5,13 # 0xbadf00d
  6c:	60000513          	li	a0,1536
  70:	f91ff0ef          	jal	0x0
  74:	0000006f          	j	0x74
  78:	fe010113          	addi	sp,sp,-32
  7c:	00112e23          	sw	ra,28(sp)
  80:	00812c23          	sw	s0,24(sp)
  84:	02010413          	addi	s0,sp,32
  88:	03200793          	li	a5,50
  8c:	fef42423          	sw	a5,-24(s0)
  90:	03200793          	li	a5,50
  94:	fef42223          	sw	a5,-28(s0)
  98:	fe842783          	lw	a5,-24(s0)
  9c:	fe442703          	lw	a4,-28(s0)
  a0:	40e782b3          	sub	t0,a5,a4
  a4:	00028663          	beqz	t0,0xb0
  a8:	00000793          	li	a5,0
  ac:	0080006f          	j	0xb4
  b0:	00100793          	li	a5,1
  b4:	fef42623          	sw	a5,-20(s0)
  b8:	fec42783          	lw	a5,-20(s0)
  bc:	00078513          	mv	a0,a5
  c0:	01c12083          	lw	ra,28(sp)
  c4:	01812403          	lw	s0,24(sp)
  c8:	02010113          	addi	sp,sp,32
  cc:	00008067          	ret
  d0:	fe010113          	addi	sp,sp,-32
  d4:	00112e23          	sw	ra,28(sp)
  d8:	00812c23          	sw	s0,24(sp)
  dc:	02010413          	addi	s0,sp,32
  e0:	03200793          	li	a5,50
  e4:	fef42423          	sw	a5,-24(s0)
  e8:	03c00793          	li	a5,60
  ec:	fef42223          	sw	a5,-28(s0)
  f0:	fe842783          	lw	a5,-24(s0)
  f4:	fe442703          	lw	a4,-28(s0)
  f8:	40e782b3          	sub	t0,a5,a4
  fc:	00029663          	bnez	t0,0x108
 100:	00000793          	li	a5,0
 104:	0080006f          	j	0x10c
 108:	00100793          	li	a5,1
 10c:	fef42623          	sw	a5,-20(s0)
 110:	fec42783          	lw	a5,-20(s0)
 114:	00078513          	mv	a0,a5
 118:	01c12083          	lw	ra,28(sp)
 11c:	01812403          	lw	s0,24(sp)
 120:	02010113          	addi	sp,sp,32
 124:	00008067          	ret
 128:	fe010113          	addi	sp,sp,-32
 12c:	00112e23          	sw	ra,28(sp)
 130:	00812c23          	sw	s0,24(sp)
 134:	02010413          	addi	s0,sp,32
 138:	ff600793          	li	a5,-10
 13c:	fef42623          	sw	a5,-20(s0)
 140:	00500793          	li	a5,5
 144:	fef42423          	sw	a5,-24(s0)
 148:	fec42703          	lw	a4,-20(s0)
 14c:	fe842783          	lw	a5,-24(s0)
 150:	00f75663          	bge	a4,a5,0x15c
 154:	00100793          	li	a5,1
 158:	0080006f          	j	0x160
 15c:	00000793          	li	a5,0
 160:	00078513          	mv	a0,a5
 164:	01c12083          	lw	ra,28(sp)
 168:	01812403          	lw	s0,24(sp)
 16c:	02010113          	addi	sp,sp,32
 170:	00008067          	ret
 174:	fe010113          	addi	sp,sp,-32
 178:	00112e23          	sw	ra,28(sp)
 17c:	00812c23          	sw	s0,24(sp)
 180:	02010413          	addi	s0,sp,32
 184:	00500793          	li	a5,5
 188:	fef42623          	sw	a5,-20(s0)
 18c:	00500793          	li	a5,5
 190:	fef42423          	sw	a5,-24(s0)
 194:	fec42703          	lw	a4,-20(s0)
 198:	fe842783          	lw	a5,-24(s0)
 19c:	00f74663          	blt	a4,a5,0x1a8
 1a0:	00100793          	li	a5,1
 1a4:	0080006f          	j	0x1ac
 1a8:	00000793          	li	a5,0
 1ac:	00078513          	mv	a0,a5
 1b0:	01c12083          	lw	ra,28(sp)
 1b4:	01812403          	lw	s0,24(sp)
 1b8:	02010113          	addi	sp,sp,32
 1bc:	00008067          	ret
 1c0:	fe010113          	addi	sp,sp,-32
 1c4:	00112e23          	sw	ra,28(sp)
 1c8:	00812c23          	sw	s0,24(sp)
 1cc:	02010413          	addi	s0,sp,32
 1d0:	ff000793          	li	a5,-16
 1d4:	fef42423          	sw	a5,-24(s0)
 1d8:	01000793          	li	a5,16
 1dc:	fef42223          	sw	a5,-28(s0)
 1e0:	fe842783          	lw	a5,-24(s0)
 1e4:	fe442703          	lw	a4,-28(s0)
 1e8:	00e7f663          	bgeu	a5,a4,0x1f4
 1ec:	00000793          	li	a5,0
 1f0:	0080006f          	j	0x1f8
 1f4:	00100793          	li	a5,1
 1f8:	fef42623          	sw	a5,-20(s0)
 1fc:	fec42783          	lw	a5,-20(s0)
 200:	00078513          	mv	a0,a5
 204:	01c12083          	lw	ra,28(sp)
 208:	01812403          	lw	s0,24(sp)
 20c:	02010113          	addi	sp,sp,32
 210:	00008067          	ret
 214:	fe010113          	addi	sp,sp,-32
 218:	00112e23          	sw	ra,28(sp)
 21c:	00812c23          	sw	s0,24(sp)
 220:	02010413          	addi	s0,sp,32
 224:	01000793          	li	a5,16
 228:	fef42423          	sw	a5,-24(s0)
 22c:	ff000793          	li	a5,-16
 230:	fef42223          	sw	a5,-28(s0)
 234:	fe842783          	lw	a5,-24(s0)
 238:	fe442703          	lw	a4,-28(s0)
 23c:	00e7e663          	bltu	a5,a4,0x248
 240:	00000793          	li	a5,0
 244:	0080006f          	j	0x24c
 248:	00100793          	li	a5,1
 24c:	fef42623          	sw	a5,-20(s0)
 250:	fec42783          	lw	a5,-20(s0)
 254:	00078513          	mv	a0,a5
 258:	01c12083          	lw	ra,28(sp)
 25c:	01812403          	lw	s0,24(sp)
 260:	02010113          	addi	sp,sp,32
 264:	00008067          	ret
 268:	fe010113          	addi	sp,sp,-32
 26c:	00112e23          	sw	ra,28(sp)
 270:	00812c23          	sw	s0,24(sp)
 274:	02010413          	addi	s0,sp,32
 278:	fd0107b7          	lui	a5,0xfd010
 27c:	11378793          	addi	a5,a5,275 # 0xfd010113
 280:	fef42623          	sw	a5,-20(s0)
 284:	00200793          	li	a5,2
 288:	fef42423          	sw	a5,-24(s0)
 28c:	fec42703          	lw	a4,-20(s0)
 290:	fe842783          	lw	a5,-24(s0)
 294:	00f76663          	bltu	a4,a5,0x2a0
 298:	00100793          	li	a5,1
 29c:	0080006f          	j	0x2a4
 2a0:	00000793          	li	a5,0
 2a4:	00078513          	mv	a0,a5
 2a8:	01c12083          	lw	ra,28(sp)
 2ac:	01812403          	lw	s0,24(sp)
 2b0:	02010113          	addi	sp,sp,32
 2b4:	00008067          	ret
 2b8:	fe010113          	addi	sp,sp,-32
 2bc:	00112e23          	sw	ra,28(sp)
 2c0:	00812c23          	sw	s0,24(sp)
 2c4:	02010413          	addi	s0,sp,32
 2c8:	db1ff0ef          	jal	0x78
 2cc:	fea42623          	sw	a0,-20(s0)
 2d0:	fec42703          	lw	a4,-20(s0)
 2d4:	00100793          	li	a5,1
 2d8:	00f70663          	beq	a4,a5,0x2e4
 2dc:	00100513          	li	a0,1
 2e0:	d61ff0ef          	jal	0x40
 2e4:	dedff0ef          	jal	0xd0
 2e8:	fea42623          	sw	a0,-20(s0)
 2ec:	fec42703          	lw	a4,-20(s0)
 2f0:	00100793          	li	a5,1
 2f4:	00f70663          	beq	a4,a5,0x300
 2f8:	00200513          	li	a0,2
 2fc:	d45ff0ef          	jal	0x40
 300:	e75ff0ef          	jal	0x174
 304:	fea42623          	sw	a0,-20(s0)
 308:	fec42703          	lw	a4,-20(s0)
 30c:	00100793          	li	a5,1
 310:	00f70663          	beq	a4,a5,0x31c
 314:	00300513          	li	a0,3
 318:	d29ff0ef          	jal	0x40
 31c:	e0dff0ef          	jal	0x128
 320:	fea42623          	sw	a0,-20(s0)
 324:	fec42703          	lw	a4,-20(s0)
 328:	00100793          	li	a5,1
 32c:	00f70663          	beq	a4,a5,0x338
 330:	00400513          	li	a0,4
 334:	d0dff0ef          	jal	0x40
 338:	e89ff0ef          	jal	0x1c0
 33c:	fea42623          	sw	a0,-20(s0)
 340:	fec42703          	lw	a4,-20(s0)
 344:	00100793          	li	a5,1
 348:	00f70663          	beq	a4,a5,0x354
 34c:	00600513          	li	a0,6
 350:	cf1ff0ef          	jal	0x40
 354:	ec1ff0ef          	jal	0x214
 358:	fea42623          	sw	a0,-20(s0)
 35c:	fec42703          	lw	a4,-20(s0)
 360:	00100793          	li	a5,1
 364:	00f70663          	beq	a4,a5,0x370
 368:	00800513          	li	a0,8
 36c:	cd5ff0ef          	jal	0x40
 370:	deadc7b7          	lui	a5,0xdeadc
 374:	eef78593          	addi	a1,a5,-273 # 0xdeadbeef
 378:	60000513          	li	a0,1536
 37c:	c85ff0ef          	jal	0x0
 380:	0000006f          	j	0x380
 384:	00001117          	auipc	sp,0x1
 388:	c7c10113          	addi	sp,sp,-900 # 0x1000
 38c:	f2dff0ef          	jal	0x2b8
 390:	ff5ff06f          	j	0x384
